target datalayout = "e-m:e-p270:32:32-p271:32:32-p272:64:64-i64:64-i128:128-f80:128-n8:16:32:64-S128"
target triple = "x86_64-pc-linux-gnu"

%struct.slurm_conf_t = type { i64, ptr, i16, ptr, ptr, ptr, ptr, ptr, i16, ptr, ptr, ptr, ptr, ptr, ptr, ptr, i16, ptr, ptr, ptr, ptr, i16, ptr, ptr, ptr, i64, ptr, ptr, ptr, ptr, i16, ptr, ptr, i16, i32, ptr, i32, ptr, i32, i32, ptr, ptr, i64, i64, ptr, i16, i16, ptr, i32, i32, ptr, i32, ptr, i32, i16, i16, i16, ptr, i16, i16, ptr, ptr, i32, i16, i16, ptr, i32, i16, ptr, ptr, ptr, ptr, i16, ptr, ptr, ptr, ptr, i32, ptr, ptr, ptr, ptr, i16, i16, ptr, i32, i32, i32, i16, i16, ptr, ptr, i16, ptr, ptr, i32, i32, i32, i32, i32, i64, i32, i32, i16, ptr, ptr, i32, ptr, ptr, ptr, i16, i32, ptr, ptr, i16, ptr, ptr, i32, i16, ptr, ptr, ptr, ptr, i32, i32, i16, i16, i32, ptr, i16, ptr, i32, i32, i32, i32, i32, i32, ptr, i16, ptr, ptr, i32, i16, ptr, i32, i16, i16, ptr, ptr, ptr, i16, ptr, ptr, ptr, ptr, i16, i16, ptr, i16, ptr, i16, ptr, i16, ptr, i16, ptr, ptr, ptr, ptr, i16, ptr, ptr, ptr, i32, ptr, i32, ptr, ptr, i16, ptr, ptr, i32, i16, ptr, ptr, i16, i16, ptr, i16, ptr, ptr, ptr, i32, ptr, i16, i16, ptr, ptr, ptr, ptr, ptr, ptr, ptr, ptr, i16, i32, i16, ptr, ptr, ptr, ptr, i32, ptr, ptr, ptr, i16, ptr, ptr, ptr, i16, ptr, i16, ptr, i16, i16, ptr }

@slurm_with_slurmdbd.with_slurmdbd = internal global i8 0, align 1
@slurm_with_slurmdbd.is_set = internal global i8 0, align 1
@.str.5 = private unnamed_addr constant [28 x i8] c"accounting_storage/slurmdbd\00", align 1

; Function Attrs: nounwind uwtable
define dso_local zeroext i1 @slurm_with_slurmdbd() #0 {
  %1 = alloca i1, align 1
  %2 = alloca ptr, align 8
  %3 = alloca i32, align 4
  call void @llvm.lifetime.start.p0(i64 8, ptr %2) #12
  %4 = load i8, ptr @slurm_with_slurmdbd.is_set, align 1, !range !16, !noundef !17
  %5 = trunc i8 %4 to i1
  br i1 %5, label %6, label %9

6:                                                ; preds = %0
  %7 = load i8, ptr @slurm_with_slurmdbd.with_slurmdbd, align 1, !range !16, !noundef !17
  %8 = trunc i8 %7 to i1
  store i1 %8, ptr %1, align 1
  store i32 1, ptr %3, align 4
  br label %20

9:                                                ; preds = %0
  %10 = call ptr @slurm_conf_lock()
  store ptr %10, ptr %2, align 8
  %11 = load ptr, ptr %2, align 8
  %12 = getelementptr inbounds nuw %struct.slurm_conf_t, ptr %11, i32 0, i32 9
  %13 = load ptr, ptr %12, align 8
  %14 = call i32 @xstrcasecmp(ptr noundef %13, ptr noundef @.str.5)
  %15 = icmp ne i32 %14, 0
  %16 = xor i1 %15, true
  %17 = zext i1 %16 to i8
  store i8 %17, ptr @slurm_with_slurmdbd.with_slurmdbd, align 1
  store i8 1, ptr @slurm_with_slurmdbd.is_set, align 1
  call void @slurm_conf_unlock()
  %18 = load i8, ptr @slurm_with_slurmdbd.with_slurmdbd, align 1, !range !16, !noundef !17
  %19 = trunc i8 %18 to i1
  store i1 %19, ptr %1, align 1
  store i32 1, ptr %3, align 4
  br label %20

20:                                               ; preds = %9, %6
  call void @llvm.lifetime.end.p0(i64 8, ptr %2) #12
  %21 = load i1, ptr %1, align 1
  ret i1 %21
}