; Function Attrs: nounwind uwtable
define dso_local zeroext i1 @slurm_with_slurmdbd() local_unnamed_addr #1 {
  %.b2 = load i1, ptr @slurm_with_slurmdbd.is_set, align 1
  br i1 %.b2, label %7, label %1

1:                                                ; preds = %0
  %2 = tail call ptr @slurm_conf_lock() #19
  %3 = getelementptr inbounds nuw i8, ptr %2, i64 72
  %4 = load ptr, ptr %3, align 8
  %5 = tail call i32 @xstrcasecmp(ptr noundef %4, ptr noundef nonnull @.str.5) #19
  %.not = icmp eq i32 %5, 0
  %6 = zext i1 %.not to i8
  store i8 %6, ptr @slurm_with_slurmdbd.with_slurmdbd, align 1
  store i1 true, ptr @slurm_with_slurmdbd.is_set, align 1
  tail call void @slurm_conf_unlock() #19
  br label %7

7:                                                ; preds = %0, %1
  %.0.in = load i8, ptr @slurm_with_slurmdbd.with_slurmdbd, align 1, !range !17, !noundef !18
  %.0 = trunc nuw i8 %.0.in to i1
  ret i1 %.0
}